target datalayout = "e-m:e-p270:32:32-p271:32:32-p272:64:64-i64:64-i128:128-f80:128-n8:16:32:64-S128"
target triple = "x86_64-pc-linux-gnu"

%struct.StatExtEntry = type { i32, ptr, ptr, ptr, ptr, i32, ptr }
%struct.nameData = type { [64 x i8] }
%struct.ScanKeyData = type { i32, i16, i16, i32, i32, %struct.FmgrInfo, i64 }
%struct.FmgrInfo = type { ptr, i32, i16, i8, i8, i8, ptr, ptr, ptr }
%struct.FormData_pg_statistic_ext = type { i32, i32, %struct.nameData, i32, i32, %struct.int2vector }
%struct.int2vector = type { i32, i32, i32, i32, i32, i32, [0 x i16] }
%struct.ArrayType = type { i32, i32, i32, i32 }
%struct.HeapTupleData = type { i32, %struct.ItemPointerData, i32, ptr }
%struct.ItemPointerData = type { %struct.BlockIdData, i16 }
%struct.BlockIdData = type { i16, i16 }
%struct.HeapTupleHeaderData = type { %union.anon, %struct.ItemPointerData, i16, i16, i8, [0 x i8] }
%union.anon = type { %struct.HeapTupleFields }
%struct.HeapTupleFields = type { i32, i32, %union.anon.0 }
%union.anon.0 = type { i32 }

@.str.2 = private unnamed_addr constant [17 x i8] c"extended_stats.c\00", align 1
@.str.8 = private unnamed_addr constant [32 x i8] c"stxkind is not a 1-D char array\00", align 1
@__func__.fetch_statentries_for_relation = private unnamed_addr constant [31 x i8] c"fetch_statentries_for_relation\00", align 1

; Function Attrs: inlinehint nounwind uwtable
define internal ptr @DatumGetPointer(i64 noundef %0) #3 {
  %2 = alloca i64, align 8
  store i64 %0, ptr %2, align 8
  %3 = load i64, ptr %2, align 8
  %4 = inttoptr i64 %3 to ptr
  ret ptr %4
}

; Function Attrs: inlinehint nounwind uwtable
define internal signext i16 @DatumGetInt16(i64 noundef %0) #3 {
  %2 = alloca i64, align 8
  store i64 %0, ptr %2, align 8
  %3 = load i64, ptr %2, align 8
  %4 = trunc i64 %3 to i16
  ret i16 %4
}

; Function Attrs: inlinehint nounwind uwtable
define internal ptr @GETSTRUCT(ptr noundef %0) #3 {
  %2 = alloca ptr, align 8
  store ptr %0, ptr %2, align 8
  %3 = load ptr, ptr %2, align 8
  %4 = getelementptr inbounds nuw %struct.HeapTupleData, ptr %3, i32 0, i32 3
  %5 = load ptr, ptr %4, align 8
  %6 = load ptr, ptr %2, align 8
  %7 = getelementptr inbounds nuw %struct.HeapTupleData, ptr %6, i32 0, i32 3
  %8 = load ptr, ptr %7, align 8
  %9 = getelementptr inbounds nuw %struct.HeapTupleHeaderData, ptr %8, i32 0, i32 4
  %10 = load i8, ptr %9, align 2
  %11 = zext i8 %10 to i32
  %12 = sext i32 %11 to i64
  %13 = getelementptr inbounds i8, ptr %5, i64 %12
  ret ptr %13
}

; Function Attrs: inlinehint nounwind uwtable
define internal i64 @ObjectIdGetDatum(i32 noundef %0) #3 {
  %2 = alloca i32, align 4
  store i32 %0, ptr %2, align 4
  %3 = load i32, ptr %2, align 4
  %4 = zext i32 %3 to i64
  ret i64 %4
}

; Function Attrs: nounwind uwtable
define internal ptr @fetch_statentries_for_relation(ptr noundef %0, i32 noundef %1) #0 {
  %3 = alloca ptr, align 8
  %4 = alloca i32, align 4
  %5 = alloca ptr, align 8
  %6 = alloca %struct.ScanKeyData, align 8
  %7 = alloca ptr, align 8
  %8 = alloca ptr, align 8
  %9 = alloca ptr, align 8
  %10 = alloca i64, align 8
  %11 = alloca i8, align 1
  %12 = alloca i32, align 4
  %13 = alloca ptr, align 8
  %14 = alloca ptr, align 8
  %15 = alloca ptr, align 8
  %16 = alloca ptr, align 8
  %17 = alloca ptr, align 8
  store ptr %0, ptr %3, align 8
  store i32 %1, ptr %4, align 4
  call void @llvm.lifetime.start.p0(i64 8, ptr %5) #8
  call void @llvm.lifetime.start.p0(i64 72, ptr %6) #8
  call void @llvm.lifetime.start.p0(i64 8, ptr %7) #8
  call void @llvm.lifetime.start.p0(i64 8, ptr %8) #8
  store ptr null, ptr %8, align 8
  %18 = load i32, ptr %4, align 4
  %19 = call i64 @ObjectIdGetDatum(i32 noundef %18)
  call void @ScanKeyInit(ptr noundef %6, i16 noundef signext 2, i16 noundef zeroext 3, i32 noundef 184, i64 noundef %19)
  %20 = load ptr, ptr %3, align 8
  %21 = call ptr @systable_beginscan(ptr noundef %20, i32 noundef 3379, i1 noundef zeroext true, ptr noundef null, i32 noundef 1, ptr noundef %6)
  store ptr %21, ptr %5, align 8
  br label %22

22:                                               ; preds = %178, %2
  %23 = load ptr, ptr %5, align 8
  %24 = call ptr @systable_getnext(ptr noundef %23)
  store ptr %24, ptr %7, align 8
  %25 = icmp ne ptr %24, null
  br i1 %25, label %26, label %185

26:                                               ; preds = %22
  call void @llvm.lifetime.start.p0(i64 8, ptr %9) #8
  call void @llvm.lifetime.start.p0(i64 8, ptr %10) #8
  call void @llvm.lifetime.start.p0(i64 1, ptr %11) #8
  call void @llvm.lifetime.start.p0(i64 4, ptr %12) #8
  call void @llvm.lifetime.start.p0(i64 8, ptr %13) #8
  call void @llvm.lifetime.start.p0(i64 8, ptr %14) #8
  call void @llvm.lifetime.start.p0(i64 8, ptr %15) #8
  call void @llvm.lifetime.start.p0(i64 8, ptr %16) #8
  store ptr null, ptr %16, align 8
  %27 = call ptr @palloc0(i64 noundef 56)
  store ptr %27, ptr %9, align 8
  %28 = load ptr, ptr %7, align 8
  %29 = call ptr @GETSTRUCT(ptr noundef %28)
  store ptr %29, ptr %15, align 8
  %30 = load ptr, ptr %15, align 8
  %31 = getelementptr inbounds nuw %struct.FormData_pg_statistic_ext, ptr %30, i32 0, i32 0
  %32 = load i32, ptr %31, align 4
  %33 = load ptr, ptr %9, align 8
  %34 = getelementptr inbounds nuw %struct.StatExtEntry, ptr %33, i32 0, i32 0
  store i32 %32, ptr %34, align 8
  %35 = load ptr, ptr %15, align 8
  %36 = getelementptr inbounds nuw %struct.FormData_pg_statistic_ext, ptr %35, i32 0, i32 3
  %37 = load i32, ptr %36, align 4
  %38 = call ptr @get_namespace_name(i32 noundef %37)
  %39 = load ptr, ptr %9, align 8
  %40 = getelementptr inbounds nuw %struct.StatExtEntry, ptr %39, i32 0, i32 1
  store ptr %38, ptr %40, align 8
  %41 = load ptr, ptr %15, align 8
  %42 = getelementptr inbounds nuw %struct.FormData_pg_statistic_ext, ptr %41, i32 0, i32 2
  %43 = getelementptr inbounds nuw %struct.nameData, ptr %42, i32 0, i32 0
  %44 = getelementptr inbounds [64 x i8], ptr %43, i64 0, i64 0
  %45 = call ptr @pstrdup(ptr noundef %44)
  %46 = load ptr, ptr %9, align 8
  %47 = getelementptr inbounds nuw %struct.StatExtEntry, ptr %46, i32 0, i32 2
  store ptr %45, ptr %47, align 8
  store i32 0, ptr %12, align 4
  br label %48

48:                                               ; preds = %70, %26
  %49 = load i32, ptr %12, align 4
  %50 = load ptr, ptr %15, align 8
  %51 = getelementptr inbounds nuw %struct.FormData_pg_statistic_ext, ptr %50, i32 0, i32 5
  %52 = getelementptr inbounds nuw %struct.int2vector, ptr %51, i32 0, i32 4
  %53 = load i32, ptr %52, align 4
  %54 = icmp slt i32 %49, %53
  br i1 %54, label %55, label %73

55:                                               ; preds = %48
  %56 = load ptr, ptr %9, align 8
  %57 = getelementptr inbounds nuw %struct.StatExtEntry, ptr %56, i32 0, i32 3
  %58 = load ptr, ptr %57, align 8
  %59 = load ptr, ptr %15, align 8
  %60 = getelementptr inbounds nuw %struct.FormData_pg_statistic_ext, ptr %59, i32 0, i32 5
  %61 = getelementptr inbounds nuw %struct.int2vector, ptr %60, i32 0, i32 6
  %62 = load i32, ptr %12, align 4
  %63 = sext i32 %62 to i64
  %64 = getelementptr inbounds [0 x i16], ptr %61, i64 0, i64 %63
  %65 = load i16, ptr %64, align 2
  %66 = sext i16 %65 to i32
  %67 = call ptr @bms_add_member(ptr noundef %58, i32 noundef %66)
  %68 = load ptr, ptr %9, align 8
  %69 = getelementptr inbounds nuw %struct.StatExtEntry, ptr %68, i32 0, i32 3
  store ptr %67, ptr %69, align 8
  br label %70

70:                                               ; preds = %55
  %71 = load i32, ptr %12, align 4
  %72 = add i32 %71, 1
  store i32 %72, ptr %12, align 4
  br label %48, !llvm.loop !9

73:                                               ; preds = %48
  %74 = load ptr, ptr %7, align 8
  %75 = call i64 @SysCacheGetAttr(i32 noundef 64, ptr noundef %74, i16 noundef signext 7, ptr noundef %11)
  store i64 %75, ptr %10, align 8
  %76 = load i8, ptr %11, align 1, !range !6, !noundef !7
  %77 = trunc i8 %76 to i1
  br i1 %77, label %78, label %79

78:                                               ; preds = %73
  br label %83

79:                                               ; preds = %73
  %80 = load i64, ptr %10, align 8
  %81 = call signext i16 @DatumGetInt16(i64 noundef %80)
  %82 = sext i16 %81 to i32
  br label %83

83:                                               ; preds = %79, %78
  %84 = phi i32 [ -1, %78 ], [ %82, %79 ]
  %85 = load ptr, ptr %9, align 8
  %86 = getelementptr inbounds nuw %struct.StatExtEntry, ptr %85, i32 0, i32 5
  store i32 %84, ptr %86, align 8
  %87 = load ptr, ptr %7, align 8
  %88 = call i64 @SysCacheGetAttrNotNull(i32 noundef 64, ptr noundef %87, i16 noundef signext 8)
  store i64 %88, ptr %10, align 8
  %89 = load i64, ptr %10, align 8
  %90 = call ptr @DatumGetPointer(i64 noundef %89)
  %91 = call ptr @pg_detoast_datum(ptr noundef %90)
  store ptr %91, ptr %13, align 8
  %92 = load ptr, ptr %13, align 8
  %93 = getelementptr inbounds nuw %struct.ArrayType, ptr %92, i32 0, i32 1
  %94 = load i32, ptr %93, align 4
  %95 = icmp ne i32 %94, 1
  br i1 %95, label %106, label %96

96:                                               ; preds = %83
  %97 = load ptr, ptr %13, align 8
  %98 = getelementptr inbounds nuw %struct.ArrayType, ptr %97, i32 0, i32 2
  %99 = load i32, ptr %98, align 4
  %100 = icmp ne i32 %99, 0
  br i1 %100, label %106, label %101

101:                                              ; preds = %96
  %102 = load ptr, ptr %13, align 8
  %103 = getelementptr inbounds nuw %struct.ArrayType, ptr %102, i32 0, i32 3
  %104 = load i32, ptr %103, align 4
  %105 = icmp ne i32 %104, 18
  br i1 %105, label %106, label %117

106:                                              ; preds = %101, %96, %83
  br label %107

107:                                              ; preds = %106
  br i1 true, label %108, label %110

108:                                              ; preds = %107
  %109 = call zeroext i1 @errstart_cold(i32 noundef 21, ptr noundef null) #9
  br i1 %109, label %112, label %114

110:                                              ; preds = %107
  %111 = call zeroext i1 @errstart(i32 noundef 21, ptr noundef null)
  br i1 %111, label %112, label %114

112:                                              ; preds = %110, %108
  %113 = call i32 (ptr, ...) @errmsg_internal(ptr noundef @.str.8)
  call void @errfinish(ptr noundef @.str.2, i32 noundef 470, ptr noundef @__func__.fetch_statentries_for_relation)
  br label %114

114:                                              ; preds = %112, %110, %108
  unreachable

115:                                              ; No predecessors!
  br label %116

116:                                              ; preds = %115
  br label %117

117:                                              ; preds = %116, %101
  %118 = load ptr, ptr %13, align 8
  %119 = load ptr, ptr %13, align 8
  %120 = getelementptr inbounds nuw %struct.ArrayType, ptr %119, i32 0, i32 2
  %121 = load i32, ptr %120, align 4
  %122 = icmp ne i32 %121, 0
  br i1 %122, label %123, label %128

123:                                              ; preds = %117
  %124 = load ptr, ptr %13, align 8
  %125 = getelementptr inbounds nuw %struct.ArrayType, ptr %124, i32 0, i32 2
  %126 = load i32, ptr %125, align 4
  %127 = sext i32 %126 to i64
  br label %137

128:                                              ; preds = %117
  %129 = load ptr, ptr %13, align 8
  %130 = getelementptr inbounds nuw %struct.ArrayType, ptr %129, i32 0, i32 1
  %131 = load i32, ptr %130, align 4
  %132 = sext i32 %131 to i64
  %133 = mul i64 8, %132
  %134 = add i64 16, %133
  %135 = add i64 %134, 7
  %136 = and i64 %135, -8
  br label %137

137:                                              ; preds = %128, %123
  %138 = phi i64 [ %127, %123 ], [ %136, %128 ]
  %139 = getelementptr inbounds nuw i8, ptr %118, i64 %138
  store ptr %139, ptr %14, align 8
  store i32 0, ptr %12, align 4
  br label %140

140:                                              ; preds = %160, %137
  %141 = load i32, ptr %12, align 4
  %142 = load ptr, ptr %13, align 8
  %143 = getelementptr inbounds nuw i8, ptr %142, i64 16
  %144 = getelementptr inbounds i32, ptr %143, i64 0
  %145 = load i32, ptr %144, align 4
  %146 = icmp slt i32 %141, %145
  br i1 %146, label %147, label %163

147:                                              ; preds = %140
  %148 = load ptr, ptr %9, align 8
  %149 = getelementptr inbounds nuw %struct.StatExtEntry, ptr %148, i32 0, i32 4
  %150 = load ptr, ptr %149, align 8
  %151 = load ptr, ptr %14, align 8
  %152 = load i32, ptr %12, align 4
  %153 = sext i32 %152 to i64
  %154 = getelementptr inbounds i8, ptr %151, i64 %153
  %155 = load i8, ptr %154, align 1
  %156 = sext i8 %155 to i32
  %157 = call ptr @lappend_int(ptr noundef %150, i32 noundef %156)
  %158 = load ptr, ptr %9, align 8
  %159 = getelementptr inbounds nuw %struct.StatExtEntry, ptr %158, i32 0, i32 4
  store ptr %157, ptr %159, align 8
  br label %160

160:                                              ; preds = %147
  %161 = load i32, ptr %12, align 4
  %162 = add i32 %161, 1
  store i32 %162, ptr %12, align 4
  br label %140, !llvm.loop !10

163:                                              ; preds = %140
  %164 = load ptr, ptr %7, align 8
  %165 = call i64 @SysCacheGetAttr(i32 noundef 64, ptr noundef %164, i16 noundef signext 9, ptr noundef %11)
  store i64 %165, ptr %10, align 8
  %166 = load i8, ptr %11, align 1, !range !6, !noundef !7
  %167 = trunc i8 %166 to i1
  br i1 %167, label %178, label %168

168:                                              ; preds = %163
  call void @llvm.lifetime.start.p0(i64 8, ptr %17) #8
  %169 = load i64, ptr %10, align 8
  %170 = call ptr @DatumGetPointer(i64 noundef %169)
  %171 = call ptr @text_to_cstring(ptr noundef %170)
  store ptr %171, ptr %17, align 8
  %172 = load ptr, ptr %17, align 8
  %173 = call ptr @stringToNode(ptr noundef %172)
  store ptr %173, ptr %16, align 8
  %174 = load ptr, ptr %17, align 8
  call void @pfree(ptr noundef %174)
  %175 = load ptr, ptr %16, align 8
  %176 = call ptr @eval_const_expressions(ptr noundef null, ptr noundef %175)
  store ptr %176, ptr %16, align 8
  %177 = load ptr, ptr %16, align 8
  call void @fix_opfuncids(ptr noundef %177)
  call void @llvm.lifetime.end.p0(i64 8, ptr %17) #8
  br label %178

178:                                              ; preds = %168, %163
  %179 = load ptr, ptr %16, align 8
  %180 = load ptr, ptr %9, align 8
  %181 = getelementptr inbounds nuw %struct.StatExtEntry, ptr %180, i32 0, i32 6
  store ptr %179, ptr %181, align 8
  %182 = load ptr, ptr %8, align 8
  %183 = load ptr, ptr %9, align 8
  %184 = call ptr @lappend(ptr noundef %182, ptr noundef %183)
  store ptr %184, ptr %8, align 8
  call void @llvm.lifetime.end.p0(i64 8, ptr %16) #8
  call void @llvm.lifetime.end.p0(i64 8, ptr %15) #8
  call void @llvm.lifetime.end.p0(i64 8, ptr %14) #8
  call void @llvm.lifetime.end.p0(i64 8, ptr %13) #8
  call void @llvm.lifetime.end.p0(i64 4, ptr %12) #8
  call void @llvm.lifetime.end.p0(i64 1, ptr %11) #8
  call void @llvm.lifetime.end.p0(i64 8, ptr %10) #8
  call void @llvm.lifetime.end.p0(i64 8, ptr %9) #8
  br label %22, !llvm.loop !11

185:                                              ; preds = %22
  %186 = load ptr, ptr %5, align 8
  call void @systable_endscan(ptr noundef %186)
  %187 = load ptr, ptr %8, align 8
  call void @llvm.lifetime.end.p0(i64 8, ptr %8) #8
  call void @llvm.lifetime.end.p0(i64 8, ptr %7) #8
  call void @llvm.lifetime.end.p0(i64 72, ptr %6) #8
  call void @llvm.lifetime.end.p0(i64 8, ptr %5) #8
  ret ptr %187
}