; Function Attrs: nounwind uwtable
define internal fastcc ptr @fetch_statentries_for_relation(ptr noundef %0, i32 noundef %1) unnamed_addr #0 {
  %3 = alloca %struct.ScanKeyData, align 8
  %4 = alloca i8, align 1
  call void @llvm.lifetime.start.p0(i64 72, ptr nonnull %3) #10
  %5 = zext i32 %1 to i64
  call void @ScanKeyInit(ptr noundef nonnull %3, i16 noundef signext 2, i16 noundef zeroext 3, i32 noundef 184, i64 noundef %5) #10
  %6 = call ptr @systable_beginscan(ptr noundef %0, i32 noundef 3379, i1 noundef zeroext true, ptr noundef null, i32 noundef 1, ptr noundef nonnull %3) #10
  %7 = call ptr @systable_getnext(ptr noundef %6) #10
  %.not61 = icmp eq ptr %7, null
  br i1 %.not61, label %._crit_edge65, label %.lr.ph64

.lr.ph64:                                         ; preds = %2, %81
  %8 = phi ptr [ %84, %81 ], [ %7, %2 ]
  %.062 = phi ptr [ %83, %81 ], [ null, %2 ]
  call void @llvm.lifetime.start.p0(i64 1, ptr nonnull %4) #10
  %9 = call ptr @palloc0(i64 noundef 56) #10
  %10 = getelementptr i8, ptr %8, i64 16
  %.val = load ptr, ptr %10, align 8
  %11 = getelementptr inbounds nuw i8, ptr %.val, i64 22
  %12 = load i8, ptr %11, align 2
  %13 = zext i8 %12 to i64
  %14 = getelementptr inbounds nuw i8, ptr %.val, i64 %13
  %15 = load i32, ptr %14, align 4
  store i32 %15, ptr %9, align 8
  %16 = getelementptr inbounds nuw i8, ptr %14, i64 72
  %17 = load i32, ptr %16, align 4
  %18 = call ptr @get_namespace_name(i32 noundef %17) #10
  %19 = getelementptr inbounds nuw i8, ptr %9, i64 8
  store ptr %18, ptr %19, align 8
  %20 = getelementptr inbounds nuw i8, ptr %14, i64 8
  %21 = call ptr @pstrdup(ptr noundef nonnull %20) #10
  %22 = getelementptr inbounds nuw i8, ptr %9, i64 16
  store ptr %21, ptr %22, align 8
  %23 = getelementptr inbounds nuw i8, ptr %14, i64 96
  %24 = load i32, ptr %23, align 4
  %25 = icmp sgt i32 %24, 0
  br i1 %25, label %.lr.ph, label %._crit_edge

.lr.ph:                                           ; preds = %.lr.ph64
  %26 = getelementptr inbounds nuw i8, ptr %9, i64 24
  %27 = getelementptr inbounds nuw i8, ptr %14, i64 104
  %.pre = load ptr, ptr %26, align 8
  br label %28

28:                                               ; preds = %.lr.ph, %28
  %29 = phi ptr [ %.pre, %.lr.ph ], [ %33, %28 ]
  %indvars.iv = phi i64 [ 0, %.lr.ph ], [ %indvars.iv.next, %28 ]
  %30 = getelementptr inbounds nuw [0 x i16], ptr %27, i64 0, i64 %indvars.iv
  %31 = load i16, ptr %30, align 2
  %32 = sext i16 %31 to i32
  %33 = call ptr @bms_add_member(ptr noundef %29, i32 noundef %32) #10
  store ptr %33, ptr %26, align 8
  %indvars.iv.next = add nuw nsw i64 %indvars.iv, 1
  %34 = load i32, ptr %23, align 4
  %35 = sext i32 %34 to i64
  %36 = icmp slt i64 %indvars.iv.next, %35
  br i1 %36, label %28, label %._crit_edge, !llvm.loop !23

._crit_edge:                                      ; preds = %28, %.lr.ph64
  %37 = call i64 @SysCacheGetAttr(i32 noundef 64, ptr noundef nonnull %8, i16 noundef signext 7, ptr noundef nonnull %4) #10
  %38 = load i8, ptr %4, align 1, !range !8, !noundef !9
  %39 = trunc nuw i8 %38 to i1
  %40 = trunc i64 %37 to i32
  %sext = shl i32 %40, 16
  %41 = ashr exact i32 %sext, 16
  %42 = select i1 %39, i32 -1, i32 %41
  %43 = getelementptr inbounds nuw i8, ptr %9, i64 40
  store i32 %42, ptr %43, align 8
  %44 = call i64 @SysCacheGetAttrNotNull(i32 noundef 64, ptr noundef nonnull %8, i16 noundef signext 8) #10
  %45 = inttoptr i64 %44 to ptr
  %46 = call ptr @pg_detoast_datum(ptr noundef %45) #10
  %47 = getelementptr inbounds nuw i8, ptr %46, i64 4
  %48 = load i32, ptr %47, align 4
  %.not52 = icmp eq i32 %48, 1
  br i1 %.not52, label %49, label %55

49:                                               ; preds = %._crit_edge
  %50 = getelementptr inbounds nuw i8, ptr %46, i64 8
  %51 = load i32, ptr %50, align 4
  %.not53 = icmp eq i32 %51, 0
  br i1 %.not53, label %52, label %55

52:                                               ; preds = %49
  %53 = getelementptr inbounds nuw i8, ptr %46, i64 12
  %54 = load i32, ptr %53, align 4
  %.not54 = icmp eq i32 %54, 18
  br i1 %.not54, label %58, label %55

55:                                               ; preds = %52, %49, %._crit_edge
  %56 = call zeroext i1 @errstart_cold(i32 noundef 21, ptr noundef null) #11
  call void @llvm.assume(i1 %56)
  %57 = call i32 (ptr, ...) @errmsg_internal(ptr noundef nonnull @.str.8) #10
  call void @errfinish(ptr noundef nonnull @.str.2, i32 noundef 470, ptr noundef nonnull @__func__.fetch_statentries_for_relation) #10
  unreachable

58:                                               ; preds = %52
  %59 = getelementptr inbounds nuw i8, ptr %46, i64 24
  %60 = getelementptr inbounds nuw i8, ptr %46, i64 16
  %61 = load i32, ptr %60, align 4
  %62 = icmp sgt i32 %61, 0
  br i1 %62, label %.lr.ph59, label %._crit_edge60

.lr.ph59:                                         ; preds = %58
  %63 = getelementptr inbounds nuw i8, ptr %9, i64 32
  %.pre70 = load ptr, ptr %63, align 8
  br label %64

64:                                               ; preds = %.lr.ph59, %64
  %65 = phi ptr [ %.pre70, %.lr.ph59 ], [ %69, %64 ]
  %indvars.iv67 = phi i64 [ 0, %.lr.ph59 ], [ %indvars.iv.next68, %64 ]
  %66 = getelementptr inbounds nuw i8, ptr %59, i64 %indvars.iv67
  %67 = load i8, ptr %66, align 1
  %68 = sext i8 %67 to i32
  %69 = call ptr @lappend_int(ptr noundef %65, i32 noundef %68) #10
  store ptr %69, ptr %63, align 8
  %indvars.iv.next68 = add nuw nsw i64 %indvars.iv67, 1
  %70 = load i32, ptr %60, align 4
  %71 = sext i32 %70 to i64
  %72 = icmp slt i64 %indvars.iv.next68, %71
  br i1 %72, label %64, label %._crit_edge60, !llvm.loop !24

._crit_edge60:                                    ; preds = %64, %58
  %73 = call i64 @SysCacheGetAttr(i32 noundef 64, ptr noundef nonnull %8, i16 noundef signext 9, ptr noundef nonnull %4) #10
  %74 = load i8, ptr %4, align 1, !range !8, !noundef !9
  %75 = trunc nuw i8 %74 to i1
  br i1 %75, label %81, label %76

76:                                               ; preds = %._crit_edge60
  %77 = inttoptr i64 %73 to ptr
  %78 = call ptr @text_to_cstring(ptr noundef %77) #10
  %79 = call ptr @stringToNode(ptr noundef %78) #10
  call void @pfree(ptr noundef %78) #10
  %80 = call ptr @eval_const_expressions(ptr noundef null, ptr noundef %79) #10
  call void @fix_opfuncids(ptr noundef %80) #10
  br label %81

81:                                               ; preds = %76, %._crit_edge60
  %.047 = phi ptr [ null, %._crit_edge60 ], [ %80, %76 ]
  %82 = getelementptr inbounds nuw i8, ptr %9, i64 48
  store ptr %.047, ptr %82, align 8
  %83 = call ptr @lappend(ptr noundef %.062, ptr noundef nonnull %9) #10
  call void @llvm.lifetime.end.p0(i64 1, ptr nonnull %4) #10
  %84 = call ptr @systable_getnext(ptr noundef %6) #10
  %.not = icmp eq ptr %84, null
  br i1 %.not, label %._crit_edge65, label %.lr.ph64, !llvm.loop !25

._crit_edge65:                                    ; preds = %81, %2
  %.0.lcssa = phi ptr [ null, %2 ], [ %83, %81 ]
  call void @systable_endscan(ptr noundef %6) #10
  call void @llvm.lifetime.end.p0(i64 72, ptr nonnull %3) #10
  ret ptr %.0.lcssa
}